target datalayout = "e-m:e-p270:32:32-p271:32:32-p272:64:64-i64:64-i128:128-f80:128-n8:16:32:64-S128"
target triple = "x86_64-pc-linux-gnu"

%struct.darktable_t = type { %struct.dt_codepath_t, i32, i32, ptr, ptr, ptr, ptr, ptr, ptr, ptr, ptr, ptr, ptr, ptr, ptr, ptr, ptr, ptr, ptr, ptr, ptr, ptr, ptr, ptr, ptr, ptr, ptr, ptr, ptr, ptr, [64 x %struct.dt_pthread_mutex_t], %struct.dt_pthread_mutex_t, %struct.dt_pthread_mutex_t, %struct.dt_pthread_mutex_t, %struct.dt_pthread_mutex_t, %struct.dt_pthread_mutex_t, ptr, ptr, ptr, ptr, ptr, ptr, ptr, ptr, ptr, ptr, ptr, ptr, ptr, %struct.dt_lua_state_t, ptr, double, ptr, i32, [47 x i32], i32, i32, ptr, ptr, %struct.dt_sys_resources_t, %struct.dt_backthumb_t, %struct.dt_gimp_t }
%struct.dt_codepath_t = type { i8, [3 x i8] }
%struct.dt_pthread_mutex_t = type { %union.pthread_mutex_t }
%union.pthread_mutex_t = type { %struct.__pthread_mutex_s }
%struct.__pthread_mutex_s = type { i32, i32, i32, i32, i32, i16, i16, %struct.__pthread_internal_list }
%struct.__pthread_internal_list = type { ptr, ptr }
%struct.dt_lua_state_t = type { i32 }
%struct.dt_sys_resources_t = type { i64, i64, ptr, ptr, i32 }
%struct.dt_backthumb_t = type { double, double, i32, i32, i32, i32 }
%struct.dt_gimp_t = type { i32, ptr, ptr, i32, i32 }
%struct._GdkRGBA = type { double, double, double, double }
%struct._GtkDarktableGradientSlider = type { %struct._GtkDrawingArea, ptr, i32, i32, i32, [10 x double], [10 x double], [10 x i32], double, double, [3 x double], i32, i32, i32, i32, i32, i32, i32, i32, i32, ptr }
%struct._GtkDrawingArea = type { %struct._GtkWidget, ptr }
%struct._GtkWidget = type { %struct._GObject, ptr }
%struct._GObject = type { %struct._GTypeInstance, i32, ptr }
%struct._GTypeInstance = type { ptr }
%struct.dt_gui_gtk_t = type { ptr, %struct.dt_gui_widgets_t, %struct.dt_gui_scrollbars_t, i32, ptr, i32, [39 x %struct._GdkRGBA], i32, i32, i32, i32, i32, double, double, double, double, ptr, double, double, double, double, i32, i32, [4096 x i8], i32, i32, i32, %struct.dt_pthread_mutex_t }
%struct.dt_gui_widgets_t = type { ptr, ptr, ptr, ptr, i32, i32, i32 }
%struct.dt_gui_scrollbars_t = type { ptr, ptr, i32 }

@.str.1 = private unnamed_addr constant [16 x i8] c"gslider != NULL\00", align 1
@__func__.dtgtk_gradient_slider_multivalue_set_value = private unnamed_addr constant [43 x i8] c"dtgtk_gradient_slider_multivalue_set_value\00", align 1
@darktable = external global %struct.darktable_t, align 8
@.str.2 = private unnamed_addr constant [14 x i8] c"value-changed\00", align 1

; Function Attrs: nounwind uwtable
define void @dtgtk_gradient_slider_multivalue_set_value(ptr noundef %0, double noundef %1, i32 noundef %2) #0 {
  %4 = alloca ptr, align 8
  %5 = alloca double, align 8
  %6 = alloca i32, align 4
  %7 = alloca i32, align 4
  %8 = alloca i32, align 4
  store ptr %0, ptr %4, align 8, !tbaa !24
  store double %1, ptr %5, align 8, !tbaa !45
  store i32 %2, ptr %6, align 4, !tbaa !13
  br label %9

9:                                                ; preds = %3
  call void @llvm.lifetime.start.p0(i64 4, ptr %7) #11
  %10 = load ptr, ptr %4, align 8, !tbaa !24
  %11 = icmp ne ptr %10, null
  br i1 %11, label %12, label %13

12:                                               ; preds = %9
  store i32 1, ptr %7, align 4, !tbaa !13
  br label %14

13:                                               ; preds = %9
  store i32 0, ptr %7, align 4, !tbaa !13
  br label %14

14:                                               ; preds = %13, %12
  %15 = load i32, ptr %7, align 4, !tbaa !13
  store i32 %15, ptr %8, align 4, !tbaa !13
  call void @llvm.lifetime.end.p0(i64 4, ptr %7) #11
  %16 = load i32, ptr %8, align 4, !tbaa !13
  %17 = sext i32 %16 to i64
  %18 = call i64 @llvm.expect.i64(i64 %17, i64 1)
  %19 = icmp ne i64 %18, 0
  br i1 %19, label %20, label %21

20:                                               ; preds = %14
  br label %22

21:                                               ; preds = %14
  call void @g_return_if_fail_warning(ptr noundef null, ptr noundef @__func__.dtgtk_gradient_slider_multivalue_set_value, ptr noundef @.str.1)
  br label %81

22:                                               ; preds = %20
  br label %23

23:                                               ; preds = %22
  %24 = load ptr, ptr %4, align 8, !tbaa !24
  %25 = getelementptr inbounds nuw %struct._GtkDarktableGradientSlider, ptr %24, i32 0, i32 20
  %26 = load ptr, ptr %25, align 8, !tbaa !43
  %27 = load ptr, ptr %4, align 8, !tbaa !24
  %28 = load double, ptr %5, align 8, !tbaa !45
  %29 = fptrunc reassoc nsz arcp contract afn double %28 to float
  %30 = call reassoc nsz arcp contract afn float %26(ptr noundef %27, float noundef %29, i32 noundef 1)
  %31 = fpext reassoc nsz arcp contract afn float %30 to double
  %32 = fcmp reassoc nsz arcp contract afn ogt double %31, 1.000000e+00
  br i1 %32, label %33, label %34

33:                                               ; preds = %23
  br label %56

34:                                               ; preds = %23
  %35 = load ptr, ptr %4, align 8, !tbaa !24
  %36 = getelementptr inbounds nuw %struct._GtkDarktableGradientSlider, ptr %35, i32 0, i32 20
  %37 = load ptr, ptr %36, align 8, !tbaa !43
  %38 = load ptr, ptr %4, align 8, !tbaa !24
  %39 = load double, ptr %5, align 8, !tbaa !45
  %40 = fptrunc reassoc nsz arcp contract afn double %39 to float
  %41 = call reassoc nsz arcp contract afn float %37(ptr noundef %38, float noundef %40, i32 noundef 1)
  %42 = fpext reassoc nsz arcp contract afn float %41 to double
  %43 = fcmp reassoc nsz arcp contract afn olt double %42, 0.000000e+00
  br i1 %43, label %44, label %45

44:                                               ; preds = %34
  br label %54

45:                                               ; preds = %34
  %46 = load ptr, ptr %4, align 8, !tbaa !24
  %47 = getelementptr inbounds nuw %struct._GtkDarktableGradientSlider, ptr %46, i32 0, i32 20
  %48 = load ptr, ptr %47, align 8, !tbaa !43
  %49 = load ptr, ptr %4, align 8, !tbaa !24
  %50 = load double, ptr %5, align 8, !tbaa !45
  %51 = fptrunc reassoc nsz arcp contract afn double %50 to float
  %52 = call reassoc nsz arcp contract afn float %48(ptr noundef %49, float noundef %51, i32 noundef 1)
  %53 = fpext reassoc nsz arcp contract afn float %52 to double
  br label %54

54:                                               ; preds = %45, %44
  %55 = phi reassoc nsz arcp contract afn double [ 0.000000e+00, %44 ], [ %53, %45 ]
  br label %56

56:                                               ; preds = %54, %33
  %57 = phi reassoc nsz arcp contract afn double [ 1.000000e+00, %33 ], [ %55, %54 ]
  %58 = load ptr, ptr %4, align 8, !tbaa !24
  %59 = getelementptr inbounds nuw %struct._GtkDarktableGradientSlider, ptr %58, i32 0, i32 5
  %60 = load i32, ptr %6, align 4, !tbaa !13
  %61 = sext i32 %60 to i64
  %62 = getelementptr inbounds [10 x double], ptr %59, i64 0, i64 %61
  store double %57, ptr %62, align 8, !tbaa !45
  %63 = load ptr, ptr %4, align 8, !tbaa !24
  %64 = getelementptr inbounds nuw %struct._GtkDarktableGradientSlider, ptr %63, i32 0, i32 4
  %65 = load i32, ptr %64, align 8, !tbaa !26
  %66 = icmp eq i32 %65, 1
  %67 = select i1 %66, i32 0, i32 -1
  %68 = load ptr, ptr %4, align 8, !tbaa !24
  %69 = getelementptr inbounds nuw %struct._GtkDarktableGradientSlider, ptr %68, i32 0, i32 2
  store i32 %67, ptr %69, align 8, !tbaa !41
  %70 = load ptr, ptr getelementptr inbounds nuw (%struct.darktable_t, ptr @darktable, i32 0, i32 14), align 8, !tbaa !61
  %71 = getelementptr inbounds nuw %struct.dt_gui_gtk_t, ptr %70, i32 0, i32 5
  %72 = load i32, ptr %71, align 8, !tbaa !95
  %73 = icmp ne i32 %72, 0
  br i1 %73, label %77, label %74

74:                                               ; preds = %56
  %75 = load ptr, ptr %4, align 8, !tbaa !24
  %76 = call ptr @g_type_check_instance_cast(ptr noundef %75, i64 noundef 80)
  call void (ptr, ptr, ...) @g_signal_emit_by_name(ptr noundef %76, ptr noundef @.str.2)
  br label %77

77:                                               ; preds = %74, %56
  %78 = load ptr, ptr %4, align 8, !tbaa !24
  %79 = call i64 @gtk_widget_get_type() #12
  %80 = call ptr @g_type_check_instance_cast(ptr noundef %78, i64 noundef %79)
  call void @gtk_widget_queue_draw(ptr noundef %80)
  br label %81

81:                                               ; preds = %77, %21
  ret void
}