; Function Attrs: nounwind uwtable
define void @dtgtk_gradient_slider_multivalue_set_value(ptr noundef %0, double noundef %1, i32 noundef %2) local_unnamed_addr #0 {
  %.not = icmp eq ptr %0, null
  br i1 %.not, label %4, label %5, !prof !45

4:                                                ; preds = %3
  tail call void @g_return_if_fail_warning(ptr noundef null, ptr noundef nonnull @__func__.dtgtk_gradient_slider_multivalue_set_value, ptr noundef nonnull @.str.1) #14
  br label %37

5:                                                ; preds = %3
  %6 = getelementptr inbounds nuw i8, ptr %0, i64 344
  %7 = load ptr, ptr %6, align 8, !tbaa !34
  %8 = fptrunc reassoc nsz arcp contract afn double %1 to float
  %9 = tail call reassoc nsz arcp contract afn float %7(ptr noundef nonnull %0, float noundef %8, i32 noundef 1) #14
  %10 = fcmp reassoc nsz arcp contract afn ogt float %9, 1.000000e+00
  br i1 %10, label %19, label %11

11:                                               ; preds = %5
  %12 = load ptr, ptr %6, align 8, !tbaa !34
  %13 = tail call reassoc nsz arcp contract afn float %12(ptr noundef nonnull %0, float noundef %8, i32 noundef 1) #14
  %14 = fcmp reassoc nsz arcp contract afn olt float %13, 0.000000e+00
  br i1 %14, label %19, label %15

15:                                               ; preds = %11
  %16 = load ptr, ptr %6, align 8, !tbaa !34
  %17 = tail call reassoc nsz arcp contract afn float %16(ptr noundef nonnull %0, float noundef %8, i32 noundef 1) #14
  %18 = fpext reassoc nsz arcp contract afn float %17 to double
  br label %19

19:                                               ; preds = %15, %11, %5
  %20 = phi reassoc nsz arcp contract afn double [ 1.000000e+00, %5 ], [ %18, %15 ], [ 0.000000e+00, %11 ]
  %21 = getelementptr inbounds nuw i8, ptr %0, i64 64
  %22 = sext i32 %2 to i64
  %23 = getelementptr inbounds [10 x double], ptr %21, i64 0, i64 %22
  store double %20, ptr %23, align 8, !tbaa !37
  %24 = getelementptr inbounds nuw i8, ptr %0, i64 56
  %25 = load i32, ptr %24, align 8, !tbaa !16
  %26 = icmp ne i32 %25, 1
  %27 = sext i1 %26 to i32
  %28 = getelementptr inbounds nuw i8, ptr %0, i64 48
  store i32 %27, ptr %28, align 8, !tbaa !32
  %29 = load ptr, ptr getelementptr inbounds nuw (i8, ptr @darktable, i64 104), align 8, !tbaa !48
  %30 = getelementptr inbounds nuw i8, ptr %29, i64 96
  %31 = load i32, ptr %30, align 8, !tbaa !83
  %.not18 = icmp eq i32 %31, 0
  br i1 %.not18, label %32, label %34

32:                                               ; preds = %19
  %33 = tail call ptr @g_type_check_instance_cast(ptr noundef nonnull %0, i64 noundef 80) #14
  tail call void (ptr, ptr, ...) @g_signal_emit_by_name(ptr noundef %33, ptr noundef nonnull @.str.2) #14
  br label %34

34:                                               ; preds = %32, %19
  %35 = tail call i64 @gtk_widget_get_type() #15
  %36 = tail call ptr @g_type_check_instance_cast(ptr noundef nonnull %0, i64 noundef %35) #14
  tail call void @gtk_widget_queue_draw(ptr noundef %36) #14
  br label %37

37:                                               ; preds = %34, %4
  ret void
}